target datalayout = "e-m:e-p270:32:32-p271:32:32-p272:64:64-i64:64-i128:128-f80:128-n8:16:32:64-S128"
target triple = "x86_64-pc-linux-gnu"

%struct.hiredisAllocFuncs = type { ptr, ptr, ptr, ptr, ptr }
%struct.redisContextFuncs = type { ptr, ptr, ptr, ptr, ptr, ptr }
%struct.redisContext = type { ptr, i32, [128 x i8], i32, i32, ptr, ptr, i32, ptr, ptr, %struct.anon, %struct.anon.0, ptr, i64, ptr, ptr, ptr, ptr }
%struct.anon = type { ptr, ptr, i32 }
%struct.anon.0 = type { ptr }

@hiredisAllocFns = external global %struct.hiredisAllocFuncs, align 8

; Function Attrs: inlinehint nounwind uwtable
define internal void @hi_free(ptr noundef %0) #2 {
  %2 = alloca ptr, align 8
  store ptr %0, ptr %2, align 8, !tbaa !4
  %3 = load ptr, ptr getelementptr inbounds nuw (%struct.hiredisAllocFuncs, ptr @hiredisAllocFns, i32 0, i32 4), align 8, !tbaa !22
  %4 = load ptr, ptr %2, align 8, !tbaa !4
  call void %3(ptr noundef %4)
  ret void
}

; Function Attrs: nounwind uwtable
define void @redisFree(ptr noundef %0) #0 {
  %2 = alloca ptr, align 8
  store ptr %0, ptr %2, align 8, !tbaa !40
  %3 = load ptr, ptr %2, align 8, !tbaa !40
  %4 = icmp eq ptr %3, null
  br i1 %4, label %5, label %6

5:                                                ; preds = %1
  br label %93

6:                                                ; preds = %1
  %7 = load ptr, ptr %2, align 8, !tbaa !40
  %8 = getelementptr inbounds nuw %struct.redisContext, ptr %7, i32 0, i32 0
  %9 = load ptr, ptr %8, align 8, !tbaa !50
  %10 = icmp ne ptr %9, null
  br i1 %10, label %11, label %25

11:                                               ; preds = %6
  %12 = load ptr, ptr %2, align 8, !tbaa !40
  %13 = getelementptr inbounds nuw %struct.redisContext, ptr %12, i32 0, i32 0
  %14 = load ptr, ptr %13, align 8, !tbaa !50
  %15 = getelementptr inbounds nuw %struct.redisContextFuncs, ptr %14, i32 0, i32 0
  %16 = load ptr, ptr %15, align 8, !tbaa !51
  %17 = icmp ne ptr %16, null
  br i1 %17, label %18, label %25

18:                                               ; preds = %11
  %19 = load ptr, ptr %2, align 8, !tbaa !40
  %20 = getelementptr inbounds nuw %struct.redisContext, ptr %19, i32 0, i32 0
  %21 = load ptr, ptr %20, align 8, !tbaa !50
  %22 = getelementptr inbounds nuw %struct.redisContextFuncs, ptr %21, i32 0, i32 0
  %23 = load ptr, ptr %22, align 8, !tbaa !51
  %24 = load ptr, ptr %2, align 8, !tbaa !40
  call void %23(ptr noundef %24)
  br label %25

25:                                               ; preds = %18, %11, %6
  %26 = load ptr, ptr %2, align 8, !tbaa !40
  %27 = getelementptr inbounds nuw %struct.redisContext, ptr %26, i32 0, i32 5
  %28 = load ptr, ptr %27, align 8, !tbaa !53
  call void @hi_sdsfree(ptr noundef %28)
  %29 = load ptr, ptr %2, align 8, !tbaa !40
  %30 = getelementptr inbounds nuw %struct.redisContext, ptr %29, i32 0, i32 6
  %31 = load ptr, ptr %30, align 8, !tbaa !54
  call void @redisReaderFree(ptr noundef %31)
  %32 = load ptr, ptr %2, align 8, !tbaa !40
  %33 = getelementptr inbounds nuw %struct.redisContext, ptr %32, i32 0, i32 10
  %34 = getelementptr inbounds nuw %struct.anon, ptr %33, i32 0, i32 0
  %35 = load ptr, ptr %34, align 8, !tbaa !55
  call void @hi_free(ptr noundef %35)
  %36 = load ptr, ptr %2, align 8, !tbaa !40
  %37 = getelementptr inbounds nuw %struct.redisContext, ptr %36, i32 0, i32 10
  %38 = getelementptr inbounds nuw %struct.anon, ptr %37, i32 0, i32 1
  %39 = load ptr, ptr %38, align 8, !tbaa !56
  call void @hi_free(ptr noundef %39)
  %40 = load ptr, ptr %2, align 8, !tbaa !40
  %41 = getelementptr inbounds nuw %struct.redisContext, ptr %40, i32 0, i32 11
  %42 = getelementptr inbounds nuw %struct.anon.0, ptr %41, i32 0, i32 0
  %43 = load ptr, ptr %42, align 8, !tbaa !57
  call void @hi_free(ptr noundef %43)
  %44 = load ptr, ptr %2, align 8, !tbaa !40
  %45 = getelementptr inbounds nuw %struct.redisContext, ptr %44, i32 0, i32 8
  %46 = load ptr, ptr %45, align 8, !tbaa !58
  call void @hi_free(ptr noundef %46)
  %47 = load ptr, ptr %2, align 8, !tbaa !40
  %48 = getelementptr inbounds nuw %struct.redisContext, ptr %47, i32 0, i32 9
  %49 = load ptr, ptr %48, align 8, !tbaa !59
  call void @hi_free(ptr noundef %49)
  %50 = load ptr, ptr %2, align 8, !tbaa !40
  %51 = getelementptr inbounds nuw %struct.redisContext, ptr %50, i32 0, i32 12
  %52 = load ptr, ptr %51, align 8, !tbaa !60
  call void @hi_free(ptr noundef %52)
  %53 = load ptr, ptr %2, align 8, !tbaa !40
  %54 = getelementptr inbounds nuw %struct.redisContext, ptr %53, i32 0, i32 14
  %55 = load ptr, ptr %54, align 8, !tbaa !61
  %56 = icmp ne ptr %55, null
  br i1 %56, label %57, label %69

57:                                               ; preds = %25
  %58 = load ptr, ptr %2, align 8, !tbaa !40
  %59 = getelementptr inbounds nuw %struct.redisContext, ptr %58, i32 0, i32 15
  %60 = load ptr, ptr %59, align 8, !tbaa !62
  %61 = icmp ne ptr %60, null
  br i1 %61, label %62, label %69

62:                                               ; preds = %57
  %63 = load ptr, ptr %2, align 8, !tbaa !40
  %64 = getelementptr inbounds nuw %struct.redisContext, ptr %63, i32 0, i32 15
  %65 = load ptr, ptr %64, align 8, !tbaa !62
  %66 = load ptr, ptr %2, align 8, !tbaa !40
  %67 = getelementptr inbounds nuw %struct.redisContext, ptr %66, i32 0, i32 14
  %68 = load ptr, ptr %67, align 8, !tbaa !61
  call void %65(ptr noundef %68)
  br label %69

69:                                               ; preds = %62, %57, %25
  %70 = load ptr, ptr %2, align 8, !tbaa !40
  %71 = getelementptr inbounds nuw %struct.redisContext, ptr %70, i32 0, i32 0
  %72 = load ptr, ptr %71, align 8, !tbaa !50
  %73 = icmp ne ptr %72, null
  br i1 %73, label %74, label %90

74:                                               ; preds = %69
  %75 = load ptr, ptr %2, align 8, !tbaa !40
  %76 = getelementptr inbounds nuw %struct.redisContext, ptr %75, i32 0, i32 0
  %77 = load ptr, ptr %76, align 8, !tbaa !50
  %78 = getelementptr inbounds nuw %struct.redisContextFuncs, ptr %77, i32 0, i32 1
  %79 = load ptr, ptr %78, align 8, !tbaa !63
  %80 = icmp ne ptr %79, null
  br i1 %80, label %81, label %90

81:                                               ; preds = %74
  %82 = load ptr, ptr %2, align 8, !tbaa !40
  %83 = getelementptr inbounds nuw %struct.redisContext, ptr %82, i32 0, i32 0
  %84 = load ptr, ptr %83, align 8, !tbaa !50
  %85 = getelementptr inbounds nuw %struct.redisContextFuncs, ptr %84, i32 0, i32 1
  %86 = load ptr, ptr %85, align 8, !tbaa !63
  %87 = load ptr, ptr %2, align 8, !tbaa !40
  %88 = getelementptr inbounds nuw %struct.redisContext, ptr %87, i32 0, i32 16
  %89 = load ptr, ptr %88, align 8, !tbaa !64
  call void %86(ptr noundef %89)
  br label %90

90:                                               ; preds = %81, %74, %69
  %91 = load ptr, ptr %2, align 8, !tbaa !40
  call void @llvm.memset.p0.i64(ptr align 8 %91, i8 -1, i64 272, i1 false)
  %92 = load ptr, ptr %2, align 8, !tbaa !40
  call void @hi_free(ptr noundef %92)
  br label %93

93:                                               ; preds = %90, %5
  ret void
}