; Function Attrs: nounwind uwtable
define void @redisFree(ptr noundef %0) local_unnamed_addr #0 {
  %2 = icmp eq ptr %0, null
  br i1 %2, label %47, label %3

3:                                                ; preds = %1
  %4 = load ptr, ptr %0, align 8, !tbaa !40
  %.not = icmp eq ptr %4, null
  br i1 %.not, label %8, label %5

5:                                                ; preds = %3
  %6 = load ptr, ptr %4, align 8, !tbaa !41
  %.not29 = icmp eq ptr %6, null
  br i1 %.not29, label %8, label %7

7:                                                ; preds = %5
  tail call void %6(ptr noundef nonnull %0) #13
  br label %8

8:                                                ; preds = %7, %5, %3
  %9 = getelementptr inbounds nuw i8, ptr %0, i64 152
  %10 = load ptr, ptr %9, align 8, !tbaa !43
  tail call void @hi_sdsfree(ptr noundef %10) #13
  %11 = getelementptr inbounds nuw i8, ptr %0, i64 160
  %12 = load ptr, ptr %11, align 8, !tbaa !44
  tail call void @redisReaderFree(ptr noundef %12) #13
  %13 = getelementptr inbounds nuw i8, ptr %0, i64 192
  %14 = load ptr, ptr %13, align 8, !tbaa !45
  %15 = load ptr, ptr getelementptr inbounds nuw (i8, ptr @hiredisAllocFns, i64 32), align 8, !tbaa !20
  tail call void %15(ptr noundef %14) #13
  %16 = getelementptr inbounds nuw i8, ptr %0, i64 200
  %17 = load ptr, ptr %16, align 8, !tbaa !46
  %18 = load ptr, ptr getelementptr inbounds nuw (i8, ptr @hiredisAllocFns, i64 32), align 8, !tbaa !20
  tail call void %18(ptr noundef %17) #13
  %19 = getelementptr inbounds nuw i8, ptr %0, i64 216
  %20 = load ptr, ptr %19, align 8, !tbaa !47
  %21 = load ptr, ptr getelementptr inbounds nuw (i8, ptr @hiredisAllocFns, i64 32), align 8, !tbaa !20
  tail call void %21(ptr noundef %20) #13
  %22 = getelementptr inbounds nuw i8, ptr %0, i64 176
  %23 = load ptr, ptr %22, align 8, !tbaa !48
  %24 = load ptr, ptr getelementptr inbounds nuw (i8, ptr @hiredisAllocFns, i64 32), align 8, !tbaa !20
  tail call void %24(ptr noundef %23) #13
  %25 = getelementptr inbounds nuw i8, ptr %0, i64 184
  %26 = load ptr, ptr %25, align 8, !tbaa !49
  %27 = load ptr, ptr getelementptr inbounds nuw (i8, ptr @hiredisAllocFns, i64 32), align 8, !tbaa !20
  tail call void %27(ptr noundef %26) #13
  %28 = getelementptr inbounds nuw i8, ptr %0, i64 224
  %29 = load ptr, ptr %28, align 8, !tbaa !50
  %30 = load ptr, ptr getelementptr inbounds nuw (i8, ptr @hiredisAllocFns, i64 32), align 8, !tbaa !20
  tail call void %30(ptr noundef %29) #13
  %31 = getelementptr inbounds nuw i8, ptr %0, i64 240
  %32 = load ptr, ptr %31, align 8, !tbaa !51
  %.not30 = icmp eq ptr %32, null
  br i1 %.not30, label %37, label %33

33:                                               ; preds = %8
  %34 = getelementptr inbounds nuw i8, ptr %0, i64 248
  %35 = load ptr, ptr %34, align 8, !tbaa !52
  %.not31 = icmp eq ptr %35, null
  br i1 %.not31, label %37, label %36

36:                                               ; preds = %33
  tail call void %35(ptr noundef nonnull %32) #13
  br label %37

37:                                               ; preds = %36, %33, %8
  %38 = load ptr, ptr %0, align 8, !tbaa !40
  %.not32 = icmp eq ptr %38, null
  br i1 %.not32, label %45, label %39

39:                                               ; preds = %37
  %40 = getelementptr inbounds nuw i8, ptr %38, i64 8
  %41 = load ptr, ptr %40, align 8, !tbaa !53
  %.not33 = icmp eq ptr %41, null
  br i1 %.not33, label %45, label %42

42:                                               ; preds = %39
  %43 = getelementptr inbounds nuw i8, ptr %0, i64 256
  %44 = load ptr, ptr %43, align 8, !tbaa !54
  tail call void %41(ptr noundef %44) #13
  br label %45

45:                                               ; preds = %42, %39, %37
  tail call void @llvm.memset.p0.i64(ptr noundef nonnull align 8 dereferenceable(272) %0, i8 -1, i64 272, i1 false)
  %46 = load ptr, ptr getelementptr inbounds nuw (i8, ptr @hiredisAllocFns, i64 32), align 8, !tbaa !20
  tail call void %46(ptr noundef nonnull %0) #13
  br label %47

47:                                               ; preds = %1, %45
  ret void
}